Certificate:
    Data:
        Version: 3 (0x2)
        Serial Number: 4098 (0x1002)
        Signature Algorithm: sha256WithRSAEncryption
        Issuer: C=US, ST=IL, L=Chicago, O=Sample, OU=Sample Unit, CN=ca/emailAddress=sample@example.com
        Validity
            Not Before: Jan 11 21:43:01 2017 GMT
            Not After : Oct  7 21:43:01 2019 GMT
        Subject: C=US, ST=IL, L=Chicago, O=Example Client, OU=Server Client, CN=localhost/emailAddress=sampleclient@example.com
        Subject Public Key Info:
            Public Key Algorithm: rsaEncryption
            RSA Public Key: (2048 bit)
                Modulus (2048 bit):
                    00:9f:42:ce:e6:1f:dd:66:bc:81:24:9d:db:fe:24:
                    f3:e0:bd:0f:d4:cf:2f:46:34:a7:4e:88:1b:97:f5:
                    4a:70:29:a7:00:cd:49:85:4c:94:f9:07:42:03:48:
                    62:fa:2a:b4:aa:82:63:e8:21:bb:12:d6:48:0f:6a:
                    34:00:76:52:3d:28:e1:5c:db:f8:fd:eb:c8:8d:f8:
                    8e:07:ce:d1:c2:1c:3b:bc:6b:47:22:3f:55:e3:4a:
                    86:57:78:23:82:63:84:9b:0d:99:9e:c3:a0:54:82:
                    0e:b5:2f:53:bb:bf:1a:6f:92:f8:13:a4:e8:cc:97:
                    4a:4c:82:f1:24:bd:27:0f:09:5d:10:ad:c9:fa:61:
                    fd:39:ac:48:2d:05:29:5d:ec:33:88:8c:54:a2:5e:
                    51:55:ee:43:b9:36:1b:d0:f6:c8:dd:07:73:9d:84:
                    bb:7a:15:36:a5:0c:c6:13:46:6d:84:7f:7d:cb:6f:
                    42:31:a9:9f:7a:b2:ad:cd:96:45:38:af:64:29:4e:
                    a7:39:92:1e:54:67:e4:72:12:bf:85:22:bd:6d:7c:
                    54:08:c5:f7:69:f5:54:3e:f3:1d:4b:c3:09:94:6a:
                    d6:9b:c8:71:7c:7b:da:3d:88:b3:43:09:dc:d1:17:
                    66:dc:d0:8b:74:f6:54:93:1d:1c:18:b4:98:f7:f9:
                    6d:c5
                Exponent: 65537 (0x10001)
        X509v3 extensions:
            X509v3 Basic Constraints: 
                CA:FALSE
            Netscape Cert Type: 
                SSL Client, S/MIME
            Netscape Comment: 
                OpenSSL Generated Client Certificate
            X509v3 Subject Key Identifier: 
                50:B1:BE:36:E8:58:37:E1:A4:5F:01:83:4C:F3:4F:D0:3A:0B:64:3C
            X509v3 Authority Key Identifier: 
                keyid:E0:A7:4D:C1:04:4E:CE:A4:88:51:C6:41:46:72:14:49:16:8A:33:26

            X509v3 Key Usage: critical
                Digital Signature, Non Repudiation, Key Encipherment
            X509v3 Extended Key Usage: 
                TLS Web Client Authentication, E-mail Protection
    Signature Algorithm: sha256WithRSAEncryption
        34:fc:af:16:be:e5:70:85:ae:28:53:e8:5f:18:a7:51:0d:9a:
        c4:55:98:5d:c2:7c:a8:ba:77:17:ae:5d:0c:b5:81:73:2d:dc:
        68:a4:2f:6f:e4:a8:54:f9:78:97:a2:19:0e:db:1e:24:96:95:
        ed:43:5c:29:c2:82:82:49:d4:b3:21:ff:26:93:e2:a2:8a:b4:
        77:e1:21:09:c8:90:1b:c6:df:87:1d:07:32:30:0a:60:74:1c:
        3d:27:ae:94:48:78:5d:74:b7:de:35:fa:93:b8:89:74:e1:31:
        4b:43:bd:55:ca:70:b4:c8:4a:a4:78:dc:77:19:0a:6b:ba:be:
        db:f3:7e:6a:44:04:d3:9d:9d:66:69:ea:a6:60:40:00:ba:8a:
        f7:54:fc:89:dd:1b:76:0e:07:5d:70:03:a2:76:3b:5d:f8:7c:
        86:37:49:7e:11:27:75:c4:a3:3a:83:9d:c0:af:21:30:4e:26:
        45:27:cd:f4:4a:b7:67:fc:34:18:07:a7:32:8d:76:f9:ca:ce:
        f8:74:60:ad:0e:52:15:9e:55:0d:88:f5:65:b7:d7:cf:b0:51:
        1d:c7:66:d2:c9:ec:23:39:db:26:94:c0:2c:bb:33:9c:16:57:
        fd:48:10:5d:b7:0d:11:8e:7a:81:a4:e1:d5:c9:5e:d4:e7:2a:
        52:4e:5d:8e
-----BEGIN CERTIFICATE-----
MIIEYTCCA0mgAwIBAgICEAIwDQYJKoZIhvcNAQELBQAwgYMxCzAJBgNVBAYTAlVT
MQswCQYDVQQIDAJJTDEQMA4GA1UEBwwHQ2hpY2FnbzEPMA0GA1UECgwGU2FtcGxl
MRQwEgYDVQQLDAtTYW1wbGUgVW5pdDELMAkGA1UEAwwCY2ExITAfBgkqhkiG9w0B
CQEWEnNhbXBsZUBleGFtcGxlLmNvbTAeFw0xNzAxMTEyMTQzMDFaFw0xOTEwMDcy
MTQzMDFaMIGaMQswCQYDVQQGEwJVUzELMAkGA1UECAwCSUwxEDAOBgNVBAcMB0No
aWNhZ28xFzAVBgNVBAoMDkV4YW1wbGUgQ2xpZW50MRYwFAYDVQQLDA1TZXJ2ZXIg
Q2xpZW50MRIwEAYDVQQDDAlsb2NhbGhvc3QxJzAlBgkqhkiG9w0BCQEWGHNhbXBs
ZWNsaWVudEBleGFtcGxlLmNvbTCCASIwDQYJKoZIhvcNAQEBBQADggEPADCCAQoC
ggEBAJ9CzuYf3Wa8gSSd2/4k8+C9D9TPL0Y0p06IG5f1SnAppwDNSYVMlPkHQgNI
YvoqtKqCY+ghuxLWSA9qNAB2Uj0o4Vzb+P3ryI34jgfO0cIcO7xrRyI/VeNKhld4
I4JjhJsNmZ7DoFSCDrUvU7u/Gm+S+BOk6MyXSkyC8SS9Jw8JXRCtyfph/TmsSC0F
KV3sM4iMVKJeUVXuQ7k2G9D2yN0Hc52Eu3oVNqUMxhNGbYR/fctvQjGpn3qyrc2W
RTivZClOpzmSHlRn5HISv4UivW18VAjF92n1VD7zHUvDCZRq1pvIcXx72j2Is0MJ
3NEXZtzQi3T2VJMdHBi0mPf5bcUCAwEAAaOBxTCBwjAJBgNVHRMEAjAAMBEGCWCG
SAGG+EIBAQQEAwIFoDAzBglghkgBhvhCAQ0EJhYkT3BlblNTTCBHZW5lcmF0ZWQg
Q2xpZW50IENlcnRpZmljYXRlMB0GA1UdDgQWBBRQsb426Fg34aRfAYNM80/QOgtk
PDAfBgNVHSMEGDAWgBTgp03BBE7OpIhRxkFGchRJFoozJjAOBgNVHQ8BAf8EBAMC
BeAwHQYDVR0lBBYwFAYIKwYBBQUHAwIGCCsGAQUFBwMEMA0GCSqGSIb3DQEBCwUA
A4IBAQA0/K8WvuVwha4oU+hfGKdRDZrEVZhdwnyouncXrl0MtYFzLdxopC9v5KhU
+XiXohkO2x4klpXtQ1wpwoKCSdSzIf8mk+KiirR34SEJyJAbxt+HHQcyMApgdBw9
J66USHhddLfeNfqTuIl04TFLQ71VynC0yEqkeNx3GQprur7b835qRATTnZ1maeqm
YEAAuor3VPyJ3Rt2DgddcAOidjtd+HyGN0l+ESd1xKM6g53AryEwTiZFJ830Srdn
/DQYB6cyjXb5ys74dGCtDlIVnlUNiPVlt9fPsFEdx2bSyewjOdsmlMAsuzOcFlf9
SBBdtw0RjnqBpOHVyV7U5ypSTl2O
-----END CERTIFICATE-----
