Certificate:
    Data:
        Version: 3 (0x2)
        Serial Number: 4096 (0x1000)
        Signature Algorithm: sha256WithRSAEncryption
        Issuer: C=US, ST=IL, L=Chicago, O=Sample, OU=Sample Unit, CN=ca/emailAddress=sample@example.com
        Validity
            Not Before: Jan 11 17:45:50 2017 GMT
            Not After : Oct  7 17:45:50 2019 GMT
        Subject: C=US, ST=IL, L=Chicago, O=Example, OU=Server, CN=localhost/emailAddress=sample@example.com
        Subject Public Key Info:
            Public Key Algorithm: rsaEncryption
            RSA Public Key: (2048 bit)
                Modulus (2048 bit):
                    00:b5:5d:d2:7a:47:9d:f9:3a:b9:e9:ee:5f:ed:3a:
                    7c:05:08:ad:2c:e4:d6:73:45:a3:18:bb:6e:5d:af:
                    00:5c:04:fe:80:2f:c5:0d:f8:e1:ac:0a:73:b0:0b:
                    78:57:cf:02:02:6d:b6:96:c5:3b:da:a8:b8:a8:4b:
                    f3:5b:e5:06:6c:f6:1c:4e:15:7f:42:bb:ad:24:31:
                    e0:19:51:1d:81:20:e1:71:32:72:69:6d:09:fd:56:
                    09:8a:ca:ce:17:29:0f:fd:30:6d:54:a4:f0:0a:0b:
                    85:e8:5c:6a:9e:d3:2d:87:24:58:95:ac:30:47:f0:
                    a4:2b:05:ce:6b:9d:91:56:74:e6:b8:56:e8:91:70:
                    9c:e9:41:f0:cc:a5:bc:bf:87:d3:20:78:dd:e9:9d:
                    4f:29:d4:03:5a:29:d7:5d:00:25:ef:12:fb:4e:6e:
                    55:2f:df:e6:dc:47:a1:22:73:34:eb:3f:66:9f:62:
                    22:68:07:9a:ee:23:36:d8:21:26:27:10:71:54:c8:
                    5a:38:dc:45:08:4f:ad:24:62:eb:37:fd:52:82:b7:
                    38:f1:fb:2b:95:f1:b6:23:ac:52:c1:27:84:74:5c:
                    6d:23:27:6a:5e:2a:e4:db:5d:ce:7e:7f:ea:07:b9:
                    83:bc:06:9b:33:2c:56:15:ef:cd:9f:25:86:38:d6:
                    2c:ed
                Exponent: 65537 (0x10001)
        X509v3 extensions:
            X509v3 Basic Constraints: 
                CA:FALSE
            Netscape Cert Type: 
                SSL Server
            Netscape Comment: 
                OpenSSL Generated Server Certificate
            X509v3 Subject Key Identifier: 
                D6:6E:1A:ED:9A:26:A5:86:07:B2:5C:37:96:84:23:C3:DD:48:11:1D
            X509v3 Authority Key Identifier: 
                keyid:E0:A7:4D:C1:04:4E:CE:A4:88:51:C6:41:46:72:14:49:16:8A:33:26
                DirName:/C=US/ST=IL/L=Chicago/O=Sample/OU=Sample Unit/CN=ca/emailAddress=sample@example.com
                serial:86:A2:45:42:B4:2C:89:4B

            X509v3 Key Usage: critical
                Digital Signature, Key Encipherment
            X509v3 Extended Key Usage: 
                TLS Web Server Authentication
    Signature Algorithm: sha256WithRSAEncryption
        92:8d:bf:70:4f:82:1d:60:05:10:25:f3:c0:f5:95:5d:8f:09:
        05:60:0c:97:ec:44:fa:70:7e:3e:0e:85:bd:f2:5b:8e:ed:0f:
        41:e9:80:7b:44:b6:ff:6a:a7:21:a2:ed:72:16:64:3f:fd:da:
        c6:49:9d:3c:e9:cb:ed:e8:ae:2f:7f:9d:49:11:1a:53:67:6f:
        c8:76:26:2d:47:7c:e2:9b:22:f1:c9:11:5e:e1:88:1f:d8:99:
        04:7b:42:71:25:0f:7f:d5:9a:77:04:34:65:37:99:0d:6e:99:
        b2:72:c4:e4:cf:3f:54:64:84:eb:19:38:65:ba:e4:4f:56:08:
        85:78:a0:67:f1:be:11:97:39:7e:b4:8d:d2:d0:3a:00:00:34:
        f6:6a:15:13:ba:ae:e5:ff:c1:e4:92:27:2c:c3:2a:30:31:5a:
        35:f4:58:d6:ee:11:e6:9b:8d:99:c0:2c:96:fa:58:84:e8:2e:
        97:df:6d:b9:4a:a9:64:ed:58:8e:ba:e7:0e:89:83:3e:ca:9c:
        58:1f:e8:8c:49:5a:9c:5e:4d:3b:39:1a:1d:28:05:fb:9d:9c:
        c0:ad:97:49:d1:11:89:de:0d:59:47:87:e5:85:4c:e3:a4:66:
        9f:07:36:c1:85:13:78:9c:b2:b3:81:b3:e4:21:70:6f:ff:0a:
        22:9c:dc:66
-----BEGIN CERTIFICATE-----
MIIE3zCCA8egAwIBAgICEAAwDQYJKoZIhvcNAQELBQAwgYMxCzAJBgNVBAYTAlVT
MQswCQYDVQQIDAJJTDEQMA4GA1UEBwwHQ2hpY2FnbzEPMA0GA1UECgwGU2FtcGxl
MRQwEgYDVQQLDAtTYW1wbGUgVW5pdDELMAkGA1UEAwwCY2ExITAfBgkqhkiG9w0B
CQEWEnNhbXBsZUBleGFtcGxlLmNvbTAeFw0xNzAxMTExNzQ1NTBaFw0xOTEwMDcx
NzQ1NTBaMIGGMQswCQYDVQQGEwJVUzELMAkGA1UECAwCSUwxEDAOBgNVBAcMB0No
aWNhZ28xEDAOBgNVBAoMB0V4YW1wbGUxDzANBgNVBAsMBlNlcnZlcjESMBAGA1UE
AwwJbG9jYWxob3N0MSEwHwYJKoZIhvcNAQkBFhJzYW1wbGVAZXhhbXBsZS5jb20w
ggEiMA0GCSqGSIb3DQEBAQUAA4IBDwAwggEKAoIBAQC1XdJ6R535Ornp7l/tOnwF
CK0s5NZzRaMYu25drwBcBP6AL8UN+OGsCnOwC3hXzwICbbaWxTvaqLioS/Nb5QZs
9hxOFX9Cu60kMeAZUR2BIOFxMnJpbQn9VgmKys4XKQ/9MG1UpPAKC4XoXGqe0y2H
JFiVrDBH8KQrBc5rnZFWdOa4VuiRcJzpQfDMpby/h9MgeN3pnU8p1ANaKdddACXv
EvtOblUv3+bcR6EiczTrP2afYiJoB5ruIzbYISYnEHFUyFo43EUIT60kYus3/VKC
tzjx+yuV8bYjrFLBJ4R0XG0jJ2peKuTbXc5+f+oHuYO8BpszLFYV782fJYY41izt
AgMBAAGjggFWMIIBUjAJBgNVHRMEAjAAMBEGCWCGSAGG+EIBAQQEAwIGQDAzBglg
hkgBhvhCAQ0EJhYkT3BlblNTTCBHZW5lcmF0ZWQgU2VydmVyIENlcnRpZmljYXRl
MB0GA1UdDgQWBBTWbhrtmialhgeyXDeWhCPD3UgRHTCBuAYDVR0jBIGwMIGtgBTg
p03BBE7OpIhRxkFGchRJFoozJqGBiaSBhjCBgzELMAkGA1UEBhMCVVMxCzAJBgNV
BAgMAklMMRAwDgYDVQQHDAdDaGljYWdvMQ8wDQYDVQQKDAZTYW1wbGUxFDASBgNV
BAsMC1NhbXBsZSBVbml0MQswCQYDVQQDDAJjYTEhMB8GCSqGSIb3DQEJARYSc2Ft
cGxlQGV4YW1wbGUuY29tggkAhqJFQrQsiUswDgYDVR0PAQH/BAQDAgWgMBMGA1Ud
JQQMMAoGCCsGAQUFBwMBMA0GCSqGSIb3DQEBCwUAA4IBAQCSjb9wT4IdYAUQJfPA
9ZVdjwkFYAyX7ET6cH4+DoW98luO7Q9B6YB7RLb/aqchou1yFmQ//drGSZ086cvt
6K4vf51JERpTZ2/IdiYtR3zimyLxyRFe4Ygf2JkEe0JxJQ9/1Zp3BDRlN5kNbpmy
csTkzz9UZITrGThluuRPVgiFeKBn8b4Rlzl+tI3S0DoAADT2ahUTuq7l/8Hkkics
wyowMVo19FjW7hHmm42ZwCyW+liE6C6X3225Sqlk7ViOuucOiYM+ypxYH+iMSVqc
Xk07ORodKAX7nZzArZdJ0RGJ3g1ZR4flhUzjpGafBzbBhRN4nLKzgbPkIXBv/woi
nNxm
-----END CERTIFICATE-----
